target datalayout = "e-m:e-p270:32:32-p271:32:32-p272:64:64-i64:64-i128:128-f80:128-n8:16:32:64-S128"
target triple = "x86_64-pc-linux-gnu"

%struct.quic_stream_list_node_st = type { ptr, ptr }
%struct.quic_stream_st = type { %struct.quic_stream_list_node_st, %struct.quic_stream_list_node_st, %struct.quic_stream_list_node_st, ptr, i64, i64, i64, i64, i64, i64, i64, ptr, ptr, %struct.quic_txfc_st, %struct.quic_rxfc_st, i64 }
%struct.quic_txfc_st = type { ptr, i64, i64, i8 }
%struct.quic_rxfc_st = type { i64, i64, i64, i64, i64, i64, i64, %struct.OSSL_TIME, ptr, ptr, ptr, i8, i8, i8, i8 }
%struct.OSSL_TIME = type { i64 }

; Function Attrs: nounwind uwtable
define i32 @ossl_quic_stream_map_ensure_send_part_id(ptr noundef %0, ptr noundef %1) #0 {
  %3 = alloca i32, align 4
  %4 = alloca ptr, align 8
  %5 = alloca ptr, align 8
  store ptr %0, ptr %4, align 8, !tbaa !3
  store ptr %1, ptr %5, align 8, !tbaa !37
  %6 = load ptr, ptr %5, align 8, !tbaa !37
  %7 = getelementptr inbounds nuw %struct.quic_stream_st, ptr %6, i32 0, i32 15
  %8 = load i64, ptr %7, align 8
  %9 = lshr i64 %8, 8
  %10 = and i64 %9, 255
  %11 = trunc i64 %10 to i32
  switch i32 %11, label %19 [
    i32 0, label %12
    i32 1, label %13
  ]

12:                                               ; preds = %2
  store i32 0, ptr %3, align 4
  br label %20

13:                                               ; preds = %2
  %14 = load ptr, ptr %5, align 8, !tbaa !37
  %15 = getelementptr inbounds nuw %struct.quic_stream_st, ptr %14, i32 0, i32 15
  %16 = load i64, ptr %15, align 8
  %17 = and i64 %16, -65281
  %18 = or i64 %17, 512
  store i64 %18, ptr %15, align 8
  store i32 1, ptr %3, align 4
  br label %20

19:                                               ; preds = %2
  store i32 1, ptr %3, align 4
  br label %20

20:                                               ; preds = %19, %13, %12
  %21 = load i32, ptr %3, align 4
  ret i32 %21
}